target datalayout = "e-m:e-p270:32:32-p271:32:32-p272:64:64-i64:64-i128:128-f80:128-n8:16:32:64-S128"
target triple = "x86_64-pc-linux-gnu"

%struct.quic_terminate_cause_st = type { i64, i64, ptr, i64, i8 }

@.str = private unnamed_addr constant [38 x i8] c"../openssl/test/helpers/quictestlib.c\00", align 1
@.str.34 = private unnamed_addr constant [38 x i8] c"ossl_quic_tserver_is_term_any(qtserv)\00", align 1
@.str.35 = private unnamed_addr constant [6 x i8] c"cause\00", align 1
@.str.36 = private unnamed_addr constant [14 x i8] c"cause->remote\00", align 1
@.str.37 = private unnamed_addr constant [11 x i8] c"cause->app\00", align 1
@.str.38 = private unnamed_addr constant [18 x i8] c"cause->error_code\00", align 1
@.str.39 = private unnamed_addr constant [5 x i8] c"code\00", align 1

; Function Attrs: nounwind uwtable
define dso_local i32 @qtest_check_server_transport_err(ptr noundef %0, i64 noundef %1) #0 {
  %3 = alloca i32, align 4
  %4 = alloca ptr, align 8
  %5 = alloca i64, align 8
  %6 = alloca ptr, align 8
  %7 = alloca i32, align 4
  store ptr %0, ptr %4, align 8, !tbaa !29
  store i64 %1, ptr %5, align 8, !tbaa !62
  call void @llvm.lifetime.start.p0(i64 8, ptr %6) #8
  %8 = load ptr, ptr %4, align 8, !tbaa !29
  %9 = call i32 @ossl_quic_tserver_tick(ptr noundef %8)
  %10 = load ptr, ptr %4, align 8, !tbaa !29
  %11 = call i32 @ossl_quic_tserver_is_term_any(ptr noundef %10)
  %12 = icmp ne i32 %11, 0
  %13 = zext i1 %12 to i32
  %14 = call i32 @test_true(ptr noundef @.str, i32 noundef 691, ptr noundef @.str.34, i32 noundef %13)
  %15 = icmp ne i32 %14, 0
  br i1 %15, label %17, label %16

16:                                               ; preds = %2
  store i32 0, ptr %3, align 4
  store i32 1, ptr %7, align 4
  br label %53

17:                                               ; preds = %2
  %18 = load ptr, ptr %4, align 8, !tbaa !29
  %19 = call ptr @ossl_quic_tserver_get_terminate_cause(ptr noundef %18)
  store ptr %19, ptr %6, align 8, !tbaa !83
  %20 = load ptr, ptr %6, align 8, !tbaa !83
  %21 = call i32 @test_ptr(ptr noundef @.str, i32 noundef 695, ptr noundef @.str.35, ptr noundef %20)
  %22 = icmp ne i32 %21, 0
  br i1 %22, label %23, label %51

23:                                               ; preds = %17
  %24 = load ptr, ptr %6, align 8, !tbaa !83
  %25 = getelementptr inbounds nuw %struct.quic_terminate_cause_st, ptr %24, i32 0, i32 4
  %26 = load i8, ptr %25, align 8
  %27 = lshr i8 %26, 1
  %28 = and i8 %27, 1
  %29 = zext i8 %28 to i32
  %30 = icmp ne i32 %29, 0
  %31 = zext i1 %30 to i32
  %32 = call i32 @test_true(ptr noundef @.str, i32 noundef 696, ptr noundef @.str.36, i32 noundef %31)
  %33 = icmp ne i32 %32, 0
  br i1 %33, label %34, label %51

34:                                               ; preds = %23
  %35 = load ptr, ptr %6, align 8, !tbaa !83
  %36 = getelementptr inbounds nuw %struct.quic_terminate_cause_st, ptr %35, i32 0, i32 4
  %37 = load i8, ptr %36, align 8
  %38 = and i8 %37, 1
  %39 = zext i8 %38 to i32
  %40 = icmp ne i32 %39, 0
  %41 = zext i1 %40 to i32
  %42 = call i32 @test_false(ptr noundef @.str, i32 noundef 697, ptr noundef @.str.37, i32 noundef %41)
  %43 = icmp ne i32 %42, 0
  br i1 %43, label %44, label %51

44:                                               ; preds = %34
  %45 = load ptr, ptr %6, align 8, !tbaa !83
  %46 = getelementptr inbounds nuw %struct.quic_terminate_cause_st, ptr %45, i32 0, i32 0
  %47 = load i64, ptr %46, align 8, !tbaa !85
  %48 = load i64, ptr %5, align 8, !tbaa !62
  %49 = call i32 @test_uint64_t_eq(ptr noundef @.str, i32 noundef 698, ptr noundef @.str.38, ptr noundef @.str.39, i64 noundef %47, i64 noundef %48)
  %50 = icmp ne i32 %49, 0
  br i1 %50, label %52, label %51

51:                                               ; preds = %44, %34, %23, %17
  store i32 0, ptr %3, align 4
  store i32 1, ptr %7, align 4
  br label %53

52:                                               ; preds = %44
  store i32 1, ptr %3, align 4
  store i32 1, ptr %7, align 4
  br label %53

53:                                               ; preds = %52, %51, %16
  call void @llvm.lifetime.end.p0(i64 8, ptr %6) #8
  %54 = load i32, ptr %3, align 4
  ret i32 %54
}