; Function Attrs: nounwind uwtable
define dso_local range(i32 0, 2) i32 @qtest_check_server_transport_err(ptr noundef %0, i64 noundef %1) local_unnamed_addr #0 {
  %3 = tail call i32 @ossl_quic_tserver_tick(ptr noundef %0) #10
  %4 = tail call i32 @ossl_quic_tserver_is_term_any(ptr noundef %0) #10
  %5 = icmp ne i32 %4, 0
  %6 = zext i1 %5 to i32
  %7 = tail call i32 @test_true(ptr noundef nonnull @.str, i32 noundef 691, ptr noundef nonnull @.str.34, i32 noundef %6) #10
  %.not = icmp eq i32 %7, 0
  br i1 %.not, label %25, label %8

8:                                                ; preds = %2
  %9 = tail call ptr @ossl_quic_tserver_get_terminate_cause(ptr noundef %0) #10
  %10 = tail call i32 @test_ptr(ptr noundef nonnull @.str, i32 noundef 695, ptr noundef nonnull @.str.35, ptr noundef %9) #10
  %.not8 = icmp eq i32 %10, 0
  br i1 %.not8, label %25, label %11

11:                                               ; preds = %8
  %12 = getelementptr inbounds nuw i8, ptr %9, i64 32
  %13 = load i8, ptr %12, align 8
  %14 = lshr i8 %13, 1
  %.lobit = and i8 %14, 1
  %15 = zext nneg i8 %.lobit to i32
  %16 = tail call i32 @test_true(ptr noundef nonnull @.str, i32 noundef 696, ptr noundef nonnull @.str.36, i32 noundef %15) #10
  %.not9 = icmp eq i32 %16, 0
  br i1 %.not9, label %25, label %17

17:                                               ; preds = %11
  %18 = load i8, ptr %12, align 8
  %19 = and i8 %18, 1
  %20 = zext nneg i8 %19 to i32
  %21 = tail call i32 @test_false(ptr noundef nonnull @.str, i32 noundef 697, ptr noundef nonnull @.str.37, i32 noundef %20) #10
  %.not10 = icmp eq i32 %21, 0
  br i1 %.not10, label %25, label %22

22:                                               ; preds = %17
  %23 = load i64, ptr %9, align 8, !tbaa !60
  %24 = tail call i32 @test_uint64_t_eq(ptr noundef nonnull @.str, i32 noundef 698, ptr noundef nonnull @.str.38, ptr noundef nonnull @.str.39, i64 noundef %23, i64 noundef %1) #10
  %.not11 = icmp ne i32 %24, 0
  %spec.select = zext i1 %.not11 to i32
  br label %25

25:                                               ; preds = %22, %8, %11, %17, %2
  %.0 = phi i32 [ 0, %2 ], [ 0, %17 ], [ 0, %11 ], [ 0, %8 ], [ %spec.select, %22 ]
  ret i32 %.0
}